target datalayout = "e-m:e-p270:32:32-p271:32:32-p272:64:64-i64:64-i128:128-f80:128-n8:16:32:64-S128"
target triple = "x86_64-pc-linux-gnu"

%struct.AVBPrint = type { ptr, i32, i32, i32, [1 x i8], [1000 x i8] }

@.str = private unnamed_addr constant [9 x i8] c"%s%s%s%s\00", align 1

; Function Attrs: nounwind uwtable
define i32 @av_log_format_line2(ptr noundef %0, i32 noundef %1, ptr noundef %2, ptr noundef %3, ptr noundef %4, i32 noundef %5, ptr noundef %6) #0 {
  %8 = alloca ptr, align 8
  %9 = alloca i32, align 4
  %10 = alloca ptr, align 8
  %11 = alloca ptr, align 8
  %12 = alloca ptr, align 8
  %13 = alloca i32, align 4
  %14 = alloca ptr, align 8
  %15 = alloca [5 x %struct.AVBPrint], align 16
  %16 = alloca i32, align 4
  store ptr %0, ptr %8, align 8, !tbaa !4
  store i32 %1, ptr %9, align 4, !tbaa !16
  store ptr %2, ptr %10, align 8, !tbaa !17
  store ptr %3, ptr %11, align 8, !tbaa !18
  store ptr %4, ptr %12, align 8, !tbaa !17
  store i32 %5, ptr %13, align 4, !tbaa !16
  store ptr %6, ptr %14, align 8, !tbaa !20
  call void @llvm.lifetime.start.p0(i64 5120, ptr %15) #7
  call void @llvm.lifetime.start.p0(i64 4, ptr %16) #7
  %17 = load ptr, ptr %8, align 8, !tbaa !4
  %18 = load i32, ptr %9, align 4, !tbaa !16
  %19 = load ptr, ptr %10, align 8, !tbaa !17
  %20 = load ptr, ptr %11, align 8, !tbaa !18
  %21 = getelementptr inbounds [5 x %struct.AVBPrint], ptr %15, i64 0, i64 0
  %22 = load ptr, ptr %14, align 8, !tbaa !20
  call void @format_line(ptr noundef %17, i32 noundef %18, ptr noundef %19, ptr noundef %20, ptr noundef %21, ptr noundef %22, ptr noundef null)
  %23 = load ptr, ptr %12, align 8, !tbaa !17
  %24 = load i32, ptr %13, align 4, !tbaa !16
  %25 = sext i32 %24 to i64
  %26 = getelementptr inbounds [5 x %struct.AVBPrint], ptr %15, i64 0, i64 0
  %27 = getelementptr inbounds nuw %struct.AVBPrint, ptr %26, i32 0, i32 0
  %28 = load ptr, ptr %27, align 16, !tbaa !22
  %29 = getelementptr inbounds [5 x %struct.AVBPrint], ptr %15, i64 0, i64 1
  %30 = getelementptr inbounds nuw %struct.AVBPrint, ptr %29, i32 0, i32 0
  %31 = load ptr, ptr %30, align 16, !tbaa !22
  %32 = getelementptr inbounds [5 x %struct.AVBPrint], ptr %15, i64 0, i64 2
  %33 = getelementptr inbounds nuw %struct.AVBPrint, ptr %32, i32 0, i32 0
  %34 = load ptr, ptr %33, align 16, !tbaa !22
  %35 = getelementptr inbounds [5 x %struct.AVBPrint], ptr %15, i64 0, i64 3
  %36 = getelementptr inbounds nuw %struct.AVBPrint, ptr %35, i32 0, i32 0
  %37 = load ptr, ptr %36, align 16, !tbaa !22
  %38 = call i32 (ptr, i64, ptr, ...) @snprintf(ptr noundef %23, i64 noundef %25, ptr noundef @.str, ptr noundef %28, ptr noundef %31, ptr noundef %34, ptr noundef %37) #7
  store i32 %38, ptr %16, align 4, !tbaa !16
  %39 = getelementptr inbounds [5 x %struct.AVBPrint], ptr %15, i64 0, i64 0
  %40 = getelementptr inbounds %struct.AVBPrint, ptr %39, i64 3
  %41 = call i32 @av_bprint_finalize(ptr noundef %40, ptr noundef null)
  %42 = load i32, ptr %16, align 4, !tbaa !16
  call void @llvm.lifetime.end.p0(i64 4, ptr %16) #7
  call void @llvm.lifetime.end.p0(i64 5120, ptr %15) #7
  ret i32 %42
}